; ModuleID = 'generated/0/binary/fishyxml_v2.o.0.5.precodegen.bc'
source_filename = "ld-temp.o"
target datalayout = "e-m:e-p270:32:32-p271:32:32-p272:64:64-i64:64-f80:128-n8:16:32:64-S128"
target triple = "x86_64-pc-linux-gnu"

@global_time = internal global i64 0, align 8
@global_thing = internal global i32 0, align 4
@.str = private unnamed_addr constant [8 x i8] c"Testing\00", align 1

; Function Attrs: noinline nounwind optnone uwtable
define internal void @_Z10path_startv() #0 {
  %1 = call i64 @time(i64* @global_time) #4
  ret void
}

; Function Attrs: nounwind
declare i64 @time(i64*) #1

; Function Attrs: noinline nounwind optnone uwtable
define internal void @_Z9path_goalv() #0 {
  %1 = call i64 @time(i64* @global_time) #4
  ret void
}

; Function Attrs: noinline nounwind optnone uwtable
define internal void @_Z12path_nongoalv() #0 {
  %1 = call i64 @time(i64* @global_time) #4
  ret void
}

; Function Attrs: noinline nounwind optnone uwtable
define internal void @_Z21example_constrain_argii(i32 %0, i32 %1) #0 {
  %3 = alloca i32, align 4
  %4 = alloca i32, align 4
  store i32 %0, i32* %3, align 4
  store i32 %1, i32* %4, align 4
  %5 = call i64 @time(i64* @global_time) #4
  ret void
}

; Function Attrs: noinline nounwind optnone uwtable
define internal i32 @_Z21example_constrain_reti(i32 %0) #0 {
  %2 = alloca i32, align 4
  %3 = alloca i32, align 4
  store i32 %0, i32* %3, align 4
  %4 = call i64 @time(i64* @global_time) #4
  call void @llvm.trap()
  unreachable

5:                                                ; No predecessors!
  %6 = load i32, i32* %2, align 4
  ret i32 %6
}

; Function Attrs: cold noreturn nounwind
declare void @llvm.trap() #2

; Function Attrs: noinline nounwind optnone uwtable
define internal i32 @_Z15example_counterv() #0 {
  %1 = alloca i32, align 4
  %2 = call i64 @time(i64* @global_time) #4
  call void @llvm.trap()
  unreachable

3:                                                ; No predecessors!
  %4 = load i32, i32* %1, align 4
  ret i32 %4
}

; Function Attrs: noinline nounwind optnone uwtable
define internal void @_Z5func2PKc(i8* %0) #0 {
  %2 = alloca i8*, align 8
  store i8* %0, i8** %2, align 8
  %3 = load i8*, i8** %2, align 8
  %4 = load i8, i8* %3, align 1
  %5 = sext i8 %4 to i32
  %6 = icmp eq i32 %5, 120
  br i1 %6, label %7, label %8

7:                                                ; preds = %1
  store i32 1, i32* @global_thing, align 4
  br label %8

8:                                                ; preds = %7, %1
  ret void
}

; Function Attrs: noinline nounwind optnone uwtable
define internal void @_Z4funcPKcj(i8* %0, i32 %1) #0 {
  %3 = alloca i8*, align 8
  %4 = alloca i32, align 4
  %5 = alloca i32, align 4
  store i8* %0, i8** %3, align 8
  store i32 %1, i32* %4, align 4
  store i32 0, i32* %5, align 4
  br label %6

6:                                                ; preds = %26, %2
  %7 = load i8*, i8** %3, align 8
  %8 = load i8, i8* %7, align 1
  %9 = sext i8 %8 to i32
  %10 = icmp ne i32 %9, 0
  br i1 %10, label %11, label %27

11:                                               ; preds = %6
  %12 = load i32, i32* %5, align 4
  %13 = load i32, i32* %4, align 4
  %14 = icmp uge i32 %12, %13
  br i1 %14, label %15, label %16

15:                                               ; preds = %11
  call void @_Z9path_goalv()
  br label %27

16:                                               ; preds = %11
  %17 = load i8*, i8** %3, align 8
  call void @_Z5func2PKc(i8* %17)
  %18 = load i8*, i8** %3, align 8
  %19 = getelementptr inbounds i8, i8* %18, i32 1
  store i8* %19, i8** %3, align 8
  %20 = load i32, i32* %5, align 4
  %21 = add i32 %20, 1
  store i32 %21, i32* %5, align 4
  %22 = load i32, i32* %5, align 4
  %23 = load i32, i32* %4, align 4
  %24 = icmp ugt i32 %22, %23
  br i1 %24, label %25, label %26

25:                                               ; preds = %16
  call void @_Z12path_nongoalv()
  br label %26

26:                                               ; preds = %25, %16
  br label %6

27:                                               ; preds = %15, %6
  ret void
}

; Function Attrs: noinline norecurse nounwind optnone uwtable
define dso_local i32 @main() #3 {
  %1 = alloca i8*, align 8
  %2 = alloca i32, align 4
  call void @_Z10path_startv()
  store i8* getelementptr inbounds ([8 x i8], [8 x i8]* @.str, i32 0, i32 0), i8** %1, align 8
  %3 = call i32 @rand() #4
  %4 = and i32 %3, 65535
  store i32 %4, i32* %2, align 4
  %5 = load i8*, i8** %1, align 8
  %6 = load i32, i32* %2, align 4
  call void @_Z4funcPKcj(i8* %5, i32 %6)
  ret i32 0
}

; Function Attrs: nounwind
declare i32 @rand() #1

attributes #0 = { noinline nounwind optnone uwtable "correctly-rounded-divide-sqrt-fp-math"="false" "disable-tail-calls"="false" "frame-pointer"="all" "less-precise-fpmad"="false" "no-infs-fp-math"="false" "no-jump-tables"="false" "no-nans-fp-math"="false" "no-signed-zeros-fp-math"="false" "no-trapping-math"="false" "stack-protector-buffer-size"="8" "target-cpu"="x86-64" "target-features"="+fxsr,+mmx,+sse,+sse2,+x87" "unsafe-fp-math"="false" "use-soft-float"="false" }
attributes #1 = { nounwind "correctly-rounded-divide-sqrt-fp-math"="false" "disable-tail-calls"="false" "frame-pointer"="all" "less-precise-fpmad"="false" "no-infs-fp-math"="false" "no-nans-fp-math"="false" "no-signed-zeros-fp-math"="false" "no-trapping-math"="false" "stack-protector-buffer-size"="8" "target-cpu"="x86-64" "target-features"="+fxsr,+mmx,+sse,+sse2,+x87" "unsafe-fp-math"="false" "use-soft-float"="false" }
attributes #2 = { cold noreturn nounwind }
attributes #3 = { noinline norecurse nounwind optnone uwtable "correctly-rounded-divide-sqrt-fp-math"="false" "disable-tail-calls"="false" "frame-pointer"="all" "less-precise-fpmad"="false" "no-infs-fp-math"="false" "no-jump-tables"="false" "no-nans-fp-math"="false" "no-signed-zeros-fp-math"="false" "no-trapping-math"="false" "stack-protector-buffer-size"="8" "target-cpu"="x86-64" "target-features"="+fxsr,+mmx,+sse,+sse2,+x87" "unsafe-fp-math"="false" "use-soft-float"="false" }
attributes #4 = { nounwind }

!llvm.ident = !{!0}
!llvm.module.flags = !{!1}

!0 = !{!"clang version 6.0.0-1ubuntu2 (tags/RELEASE_600/final)"}
!1 = !{i32 1, !"wchar_size", i32 4}
